target datalayout = "e-m:e-p270:32:32-p271:32:32-p272:64:64-i64:64-i128:128-f80:128-n8:16:32:64-S128"
target triple = "x86_64-pc-linux-gnu"

%struct.strvec = type { ptr, i64, i64 }
%struct.object_id = type { [32 x i8], i32 }
%struct.checkout_metadata = type { ptr, %struct.object_id, %struct.object_id }
%struct.repository = type { ptr, ptr, ptr, ptr, ptr, %struct.strmap, %struct.strmap, %struct.repo_path_cache, ptr, ptr, ptr, ptr, %struct.repo_settings, ptr, ptr, ptr, ptr, ptr, ptr, i32, i32, i32, ptr, ptr, i32, i32, i8 }
%struct.strmap = type { %struct.hashmap, ptr, i8 }
%struct.hashmap = type { ptr, ptr, ptr, i32, i32, i32, i32, i8 }
%struct.repo_path_cache = type { ptr, ptr, ptr, ptr, ptr, ptr, ptr }
%struct.repo_settings = type { i32, i32, i32, i32, i32, i32, i32, i32, i32, i32, i32, i32, ptr, i32, i32, i32, i32, i32, i32, i32, i64, i64, i64 }
%struct.string_list = type { ptr, i64, i64, i8, ptr }
%struct.lock_file = type { ptr }
%struct.unpack_trees_options = type { i32, i32, i32, i32, i32, i32, i32, i32, i32, i32, i32, i32, i32, i32, i32, i32, i32, ptr, ptr, ptr, ptr, i32, ptr, ptr, ptr, ptr, %struct.checkout_metadata, %struct.unpack_trees_options_internal }
%struct.unpack_trees_options_internal = type { i32, i32, i32, i32, i32, [12 x ptr], %struct.strvec, [12 x %struct.string_list], %struct.index_state, ptr, ptr }
%struct.index_state = type { ptr, i32, i32, i32, i32, ptr, ptr, ptr, %struct.cache_time, i8, i32, %struct.hashmap, %struct.hashmap, %struct.object_id, ptr, ptr, ptr, ptr, ptr, ptr, ptr }
%struct.cache_time = type { i32, i32 }
%struct.tree_desc = type { ptr, ptr, %struct.name_entry, i32, i32 }
%struct.name_entry = type { %struct.object_id, ptr, i32, i32 }
%struct.tree = type { %struct.object, ptr, i64 }
%struct.object = type { i32, %struct.object_id }

@the_repository = external global ptr, align 8
@.str.25 = private unnamed_addr constant [1 x i8] zeroinitializer, align 1
@git_gettext_enabled = external global i32, align 4
@.str.53 = private unnamed_addr constant [31 x i8] c"unable to write new index file\00", align 1

; Function Attrs: inlinehint nounwind uwtable
define internal i32 @const_error() #5 {
  ret i32 -1
}

; Function Attrs: inlinehint nounwind uwtable
define internal ptr @_(ptr noundef %0) #5 {
  %2 = alloca ptr, align 8
  %3 = alloca ptr, align 8
  store ptr %0, ptr %3, align 8, !tbaa !11
  %4 = load ptr, ptr %3, align 8, !tbaa !11
  %5 = load i8, ptr %4, align 1, !tbaa !58
  %6 = icmp ne i8 %5, 0
  br i1 %6, label %8, label %7

7:                                                ; preds = %1
  store ptr @.str.25, ptr %2, align 8
  br label %16

8:                                                ; preds = %1
  %9 = load i32, ptr @git_gettext_enabled, align 4, !tbaa !4
  %10 = icmp ne i32 %9, 0
  br i1 %10, label %13, label %11

11:                                               ; preds = %8
  %12 = load ptr, ptr %3, align 8, !tbaa !11
  store ptr %12, ptr %2, align 8
  br label %16

13:                                               ; preds = %8
  %14 = load ptr, ptr %3, align 8, !tbaa !11
  %15 = call ptr @dcgettext(ptr noundef null, ptr noundef %14, i32 noundef 5) #9
  store ptr %15, ptr %2, align 8
  br label %16

16:                                               ; preds = %13, %11, %7
  %17 = load ptr, ptr %2, align 8
  ret ptr %17
}

; Function Attrs: inlinehint nounwind uwtable
define internal i32 @parse_tree(ptr noundef %0) #5 {
  %2 = alloca ptr, align 8
  store ptr %0, ptr %2, align 8, !tbaa !123
  %3 = load ptr, ptr %2, align 8, !tbaa !123
  %4 = call i32 @parse_tree_gently(ptr noundef %3, i32 noundef 0)
  ret i32 %4
}

; Function Attrs: nounwind uwtable
define internal i32 @reset_tree(ptr noundef %0, i32 noundef %1, i32 noundef %2) #0 {
  %4 = alloca i32, align 4
  %5 = alloca ptr, align 8
  %6 = alloca i32, align 4
  %7 = alloca i32, align 4
  %8 = alloca i32, align 4
  %9 = alloca %struct.unpack_trees_options, align 8
  %10 = alloca [8 x %struct.tree_desc], align 16
  %11 = alloca ptr, align 8
  %12 = alloca %struct.lock_file, align 8
  %13 = alloca i32, align 4
  store ptr %0, ptr %5, align 8, !tbaa !129
  store i32 %1, ptr %6, align 4, !tbaa !4
  store i32 %2, ptr %7, align 4, !tbaa !4
  call void @llvm.lifetime.start.p0(i64 4, ptr %8) #9
  store i32 1, ptr %8, align 4, !tbaa !4
  call void @llvm.lifetime.start.p0(i64 1120, ptr %9) #9
  call void @llvm.lifetime.start.p0(i64 640, ptr %10) #9
  call void @llvm.lifetime.start.p0(i64 8, ptr %11) #9
  call void @llvm.lifetime.start.p0(i64 8, ptr %12) #9
  call void @llvm.memset.p0.i64(ptr align 8 %12, i8 0, i64 8, i1 false)
  %14 = load ptr, ptr @the_repository, align 8, !tbaa !13
  %15 = call i32 @repo_read_index_preload(ptr noundef %14, ptr noundef null, i32 noundef 0)
  %16 = load ptr, ptr @the_repository, align 8, !tbaa !13
  %17 = getelementptr inbounds nuw %struct.repository, ptr %16, i32 0, i32 15
  %18 = load ptr, ptr %17, align 8, !tbaa !115
  %19 = call i32 @refresh_index(ptr noundef %18, i32 noundef 4, ptr noundef null, ptr noundef null, ptr noundef null)
  %20 = icmp ne i32 %19, 0
  br i1 %20, label %21, label %22

21:                                               ; preds = %3
  store i32 -1, ptr %4, align 4
  store i32 1, ptr %13, align 4
  br label %80

22:                                               ; preds = %3
  %23 = load ptr, ptr @the_repository, align 8, !tbaa !13
  %24 = call i32 @repo_hold_locked_index(ptr noundef %23, ptr noundef %12, i32 noundef 1)
  call void @llvm.memset.p0.i64(ptr align 8 %9, i8 0, i64 1120, i1 false)
  %25 = load ptr, ptr %5, align 8, !tbaa !129
  %26 = call ptr @parse_tree_indirect(ptr noundef %25)
  store ptr %26, ptr %11, align 8, !tbaa !123
  %27 = load ptr, ptr %11, align 8, !tbaa !123
  %28 = call i32 @parse_tree(ptr noundef %27)
  %29 = icmp ne i32 %28, 0
  br i1 %29, label %30, label %31

30:                                               ; preds = %22
  store i32 -1, ptr %4, align 4
  store i32 1, ptr %13, align 4
  br label %80

31:                                               ; preds = %22
  %32 = getelementptr inbounds [8 x %struct.tree_desc], ptr %10, i64 0, i64 0
  %33 = load ptr, ptr %11, align 8, !tbaa !123
  %34 = getelementptr inbounds nuw %struct.tree, ptr %33, i32 0, i32 0
  %35 = getelementptr inbounds nuw %struct.object, ptr %34, i32 0, i32 1
  %36 = load ptr, ptr %11, align 8, !tbaa !123
  %37 = getelementptr inbounds nuw %struct.tree, ptr %36, i32 0, i32 1
  %38 = load ptr, ptr %37, align 8, !tbaa !132
  %39 = load ptr, ptr %11, align 8, !tbaa !123
  %40 = getelementptr inbounds nuw %struct.tree, ptr %39, i32 0, i32 2
  %41 = load i64, ptr %40, align 8, !tbaa !135
  call void @init_tree_desc(ptr noundef %32, ptr noundef %35, ptr noundef %38, i64 noundef %41)
  %42 = getelementptr inbounds nuw %struct.unpack_trees_options, ptr %9, i32 0, i32 21
  store i32 1, ptr %42, align 8, !tbaa !136
  %43 = load ptr, ptr @the_repository, align 8, !tbaa !13
  %44 = getelementptr inbounds nuw %struct.repository, ptr %43, i32 0, i32 15
  %45 = load ptr, ptr %44, align 8, !tbaa !115
  %46 = getelementptr inbounds nuw %struct.unpack_trees_options, ptr %9, i32 0, i32 25
  store ptr %45, ptr %46, align 8, !tbaa !152
  %47 = load ptr, ptr @the_repository, align 8, !tbaa !13
  %48 = getelementptr inbounds nuw %struct.repository, ptr %47, i32 0, i32 15
  %49 = load ptr, ptr %48, align 8, !tbaa !115
  %50 = getelementptr inbounds nuw %struct.unpack_trees_options, ptr %9, i32 0, i32 24
  store ptr %49, ptr %50, align 8, !tbaa !153
  %51 = getelementptr inbounds nuw %struct.unpack_trees_options, ptr %9, i32 0, i32 0
  store i32 1, ptr %51, align 8, !tbaa !154
  %52 = load i32, ptr %7, align 4, !tbaa !4
  %53 = icmp ne i32 %52, 0
  %54 = select i1 %53, i32 2, i32 0
  %55 = getelementptr inbounds nuw %struct.unpack_trees_options, ptr %9, i32 0, i32 16
  store i32 %54, ptr %55, align 8, !tbaa !155
  %56 = load i32, ptr %6, align 4, !tbaa !4
  %57 = getelementptr inbounds nuw %struct.unpack_trees_options, ptr %9, i32 0, i32 1
  store i32 %56, ptr %57, align 4, !tbaa !156
  %58 = load i32, ptr %6, align 4, !tbaa !4
  %59 = icmp ne i32 %58, 0
  br i1 %59, label %60, label %62

60:                                               ; preds = %31
  %61 = getelementptr inbounds nuw %struct.unpack_trees_options, ptr %9, i32 0, i32 2
  store i32 0, ptr %61, align 8, !tbaa !157
  br label %62

62:                                               ; preds = %60, %31
  %63 = getelementptr inbounds nuw %struct.unpack_trees_options, ptr %9, i32 0, i32 20
  store ptr @oneway_merge, ptr %63, align 8, !tbaa !158
  %64 = load i32, ptr %8, align 4, !tbaa !4
  %65 = getelementptr inbounds [8 x %struct.tree_desc], ptr %10, i64 0, i64 0
  %66 = call i32 @unpack_trees(i32 noundef %64, ptr noundef %65, ptr noundef %9)
  %67 = icmp ne i32 %66, 0
  br i1 %67, label %68, label %69

68:                                               ; preds = %62
  store i32 -1, ptr %4, align 4
  store i32 1, ptr %13, align 4
  br label %80

69:                                               ; preds = %62
  %70 = load ptr, ptr @the_repository, align 8, !tbaa !13
  %71 = getelementptr inbounds nuw %struct.repository, ptr %70, i32 0, i32 15
  %72 = load ptr, ptr %71, align 8, !tbaa !115
  %73 = call i32 @write_locked_index(ptr noundef %72, ptr noundef %12, i32 noundef 1)
  %74 = icmp ne i32 %73, 0
  br i1 %74, label %75, label %79

75:                                               ; preds = %69
  %76 = call ptr @_(ptr noundef @.str.53)
  %77 = call i32 (ptr, ...) @error(ptr noundef %76)
  %78 = call i32 @const_error()
  store i32 %78, ptr %4, align 4
  store i32 1, ptr %13, align 4
  br label %80

79:                                               ; preds = %69
  store i32 0, ptr %4, align 4
  store i32 1, ptr %13, align 4
  br label %80

80:                                               ; preds = %79, %75, %68, %30, %21
  call void @llvm.lifetime.end.p0(i64 8, ptr %12) #9
  call void @llvm.lifetime.end.p0(i64 8, ptr %11) #9
  call void @llvm.lifetime.end.p0(i64 640, ptr %10) #9
  call void @llvm.lifetime.end.p0(i64 1120, ptr %9) #9
  call void @llvm.lifetime.end.p0(i64 4, ptr %8) #9
  %81 = load i32, ptr %4, align 4
  ret i32 %81
}