; Function Attrs: nounwind uwtable
define internal fastcc range(i32 -1, 1) i32 @reset_tree(ptr noundef nonnull %0) unnamed_addr #0 {
  %2 = alloca %struct.unpack_trees_options, align 8
  %3 = alloca [8 x %struct.tree_desc], align 16
  %4 = alloca %struct.lock_file, align 8
  call void @llvm.lifetime.start.p0(i64 1120, ptr nonnull %2) #15
  call void @llvm.lifetime.start.p0(i64 640, ptr nonnull %3) #15
  call void @llvm.lifetime.start.p0(i64 8, ptr nonnull %4) #15
  store i64 0, ptr %4, align 8
  %5 = load ptr, ptr @the_repository, align 8, !tbaa !18
  %6 = tail call i32 @repo_read_index_preload(ptr noundef %5, ptr noundef null, i32 noundef 0) #15
  %7 = load ptr, ptr @the_repository, align 8, !tbaa !18
  %8 = getelementptr inbounds nuw i8, ptr %7, i64 384
  %9 = load ptr, ptr %8, align 8, !tbaa !119
  %10 = tail call i32 @refresh_index(ptr noundef %9, i32 noundef 4, ptr noundef null, ptr noundef null, ptr noundef null) #15
  %.not = icmp eq i32 %10, 0
  br i1 %.not, label %11, label %43

11:                                               ; preds = %1
  %12 = load ptr, ptr @the_repository, align 8, !tbaa !18
  %13 = call i32 @repo_hold_locked_index(ptr noundef %12, ptr noundef nonnull %4, i32 noundef 1) #15
  %14 = getelementptr inbounds nuw i8, ptr %2, i64 8
  call void @llvm.memset.p0.i64(ptr noundef nonnull align 8 dereferenceable(1120) %14, i8 0, i64 1112, i1 false)
  %15 = call ptr @parse_tree_indirect(ptr noundef nonnull %0) #15
  %16 = call i32 @parse_tree_gently(ptr noundef %15, i32 noundef 0) #15
  %.not9 = icmp eq i32 %16, 0
  br i1 %.not9, label %17, label %43

17:                                               ; preds = %11
  %18 = getelementptr inbounds nuw i8, ptr %15, i64 4
  %19 = getelementptr inbounds nuw i8, ptr %15, i64 40
  %20 = load ptr, ptr %19, align 8, !tbaa !124
  %21 = getelementptr inbounds nuw i8, ptr %15, i64 48
  %22 = load i64, ptr %21, align 8, !tbaa !127
  call void @init_tree_desc(ptr noundef nonnull %3, ptr noundef nonnull %18, ptr noundef %20, i64 noundef %22) #15
  %23 = getelementptr inbounds nuw i8, ptr %2, i64 104
  store i32 1, ptr %23, align 8, !tbaa !103
  %24 = load ptr, ptr @the_repository, align 8, !tbaa !18
  %25 = getelementptr inbounds nuw i8, ptr %24, i64 384
  %26 = load ptr, ptr %25, align 8, !tbaa !119
  %27 = getelementptr inbounds nuw i8, ptr %2, i64 136
  store ptr %26, ptr %27, align 8, !tbaa !120
  %28 = getelementptr inbounds nuw i8, ptr %2, i64 128
  store ptr %26, ptr %28, align 8, !tbaa !121
  store i32 1, ptr %2, align 8, !tbaa !122
  %29 = getelementptr inbounds nuw i8, ptr %2, i64 64
  store i32 0, ptr %29, align 8, !tbaa !166
  %30 = getelementptr inbounds nuw i8, ptr %2, i64 4
  store i32 0, ptr %30, align 4, !tbaa !167
  %31 = getelementptr inbounds nuw i8, ptr %2, i64 96
  store ptr @oneway_merge, ptr %31, align 8, !tbaa !123
  %32 = call i32 @unpack_trees(i32 noundef 1, ptr noundef nonnull %3, ptr noundef nonnull %2) #15
  %.not10 = icmp eq i32 %32, 0
  br i1 %.not10, label %33, label %43

33:                                               ; preds = %17
  %34 = load ptr, ptr @the_repository, align 8, !tbaa !18
  %35 = getelementptr inbounds nuw i8, ptr %34, i64 384
  %36 = load ptr, ptr %35, align 8, !tbaa !119
  %37 = call i32 @write_locked_index(ptr noundef %36, ptr noundef nonnull %4, i32 noundef 1) #15
  %.not11 = icmp eq i32 %37, 0
  br i1 %.not11, label %43, label %38

38:                                               ; preds = %33
  %39 = load i32, ptr @git_gettext_enabled, align 4, !tbaa !42
  %.not4.i = icmp eq i32 %39, 0
  br i1 %.not4.i, label %_.exit, label %40

40:                                               ; preds = %38
  %41 = call ptr @dcgettext(ptr noundef null, ptr noundef nonnull @.str.53, i32 noundef 5) #15
  br label %_.exit

_.exit:                                           ; preds = %38, %40
  %.0.i = phi ptr [ %41, %40 ], [ @.str.53, %38 ]
  %42 = call i32 (ptr, ...) @error(ptr noundef %.0.i) #15
  br label %43

43:                                               ; preds = %33, %17, %11, %1, %_.exit
  %.0 = phi i32 [ -1, %_.exit ], [ -1, %1 ], [ -1, %11 ], [ -1, %17 ], [ 0, %33 ]
  call void @llvm.lifetime.end.p0(i64 8, ptr nonnull %4) #15
  call void @llvm.lifetime.end.p0(i64 640, ptr nonnull %3) #15
  call void @llvm.lifetime.end.p0(i64 1120, ptr nonnull %2) #15
  ret i32 %.0
}